target datalayout = "e-m:e-p270:32:32-p271:32:32-p272:64:64-i64:64-i128:128-f80:128-n8:16:32:64-S128"
target triple = "x86_64-pc-linux-gnu"

%"class.icu_77::UnicodeString" = type { %"class.icu_77::Replaceable", %"union.icu_77::UnicodeString::StackBufferOrFields" }
%"class.icu_77::Replaceable" = type { %"class.icu_77::UObject" }
%"class.icu_77::UObject" = type { ptr }
%"union.icu_77::UnicodeString::StackBufferOrFields" = type { %struct.anon.0, [32 x i8] }
%struct.anon.0 = type { i16, i32, i32, ptr }
%"class.icu_77::ConstChar16Ptr" = type { ptr }

; Function Attrs: inlinehint mustprogress nounwind uwtable
define linkonce_odr noundef i32 @_ZNK6icu_7713UnicodeString14getShortLengthEv(ptr noundef nonnull align 8 dereferenceable(64) %0) #3 comdat align 2 {
  %2 = alloca ptr, align 8
  store ptr %0, ptr %2, align 8, !tbaa !35
  %3 = load ptr, ptr %2, align 8
  %4 = getelementptr inbounds nuw %"class.icu_77::UnicodeString", ptr %3, i32 0, i32 1
  %5 = getelementptr inbounds nuw %struct.anon.0, ptr %4, i32 0, i32 0
  %6 = load i16, ptr %5, align 8, !tbaa !10
  %7 = sext i16 %6 to i32
  %8 = ashr i32 %7, 5
  ret i32 %8
}

; Function Attrs: inlinehint mustprogress nounwind uwtable
define linkonce_odr noundef signext i8 @_ZNK6icu_7713UnicodeString14hasShortLengthEv(ptr noundef nonnull align 8 dereferenceable(64) %0) #3 comdat align 2 {
  %2 = alloca ptr, align 8
  store ptr %0, ptr %2, align 8, !tbaa !35
  %3 = load ptr, ptr %2, align 8
  %4 = getelementptr inbounds nuw %"class.icu_77::UnicodeString", ptr %3, i32 0, i32 1
  %5 = getelementptr inbounds nuw %struct.anon.0, ptr %4, i32 0, i32 0
  %6 = load i16, ptr %5, align 8, !tbaa !10
  %7 = sext i16 %6 to i32
  %8 = icmp sge i32 %7, 0
  %9 = zext i1 %8 to i8
  ret i8 %9
}

; Function Attrs: mustprogress uwtable
define ptr @u_fopen_77(ptr noundef %0, ptr noundef %1, ptr noundef %2, ptr noundef %3) #0 {
  %5 = alloca ptr, align 8
  %6 = alloca ptr, align 8
  %7 = alloca ptr, align 8
  %8 = alloca ptr, align 8
  %9 = alloca ptr, align 8
  %10 = alloca ptr, align 8
  %11 = alloca ptr, align 8
  %12 = alloca i32, align 4
  store ptr %0, ptr %6, align 8, !tbaa !8
  store ptr %1, ptr %7, align 8, !tbaa !8
  store ptr %2, ptr %8, align 8, !tbaa !8
  store ptr %3, ptr %9, align 8, !tbaa !8
  call void @llvm.lifetime.start.p0(i64 8, ptr %10) #9
  call void @llvm.lifetime.start.p0(i64 8, ptr %11) #9
  %13 = load ptr, ptr %6, align 8, !tbaa !8
  %14 = load ptr, ptr %7, align 8, !tbaa !8
  %15 = call noalias ptr @fopen(ptr noundef %13, ptr noundef %14)
  store ptr %15, ptr %11, align 8, !tbaa !3
  %16 = load ptr, ptr %11, align 8, !tbaa !3
  %17 = icmp eq ptr %16, null
  br i1 %17, label %18, label %19

18:                                               ; preds = %4
  store ptr null, ptr %5, align 8
  store i32 1, ptr %12, align 4
  br label %31

19:                                               ; preds = %4
  %20 = load ptr, ptr %11, align 8, !tbaa !3
  %21 = load ptr, ptr %8, align 8, !tbaa !8
  %22 = load ptr, ptr %9, align 8, !tbaa !8
  %23 = call noundef ptr @_ZL11finit_ownerP8_IO_FILEPKcS2_a(ptr noundef %20, ptr noundef %21, ptr noundef %22, i8 noundef signext 1)
  store ptr %23, ptr %10, align 8, !tbaa !13
  %24 = load ptr, ptr %10, align 8, !tbaa !13
  %25 = icmp ne ptr %24, null
  br i1 %25, label %29, label %26

26:                                               ; preds = %19
  %27 = load ptr, ptr %11, align 8, !tbaa !3
  %28 = call i32 @fclose(ptr noundef %27)
  br label %29

29:                                               ; preds = %26, %19
  %30 = load ptr, ptr %10, align 8, !tbaa !13
  store ptr %30, ptr %5, align 8
  store i32 1, ptr %12, align 4
  br label %31

31:                                               ; preds = %29, %18
  call void @llvm.lifetime.end.p0(i64 8, ptr %11) #9
  call void @llvm.lifetime.end.p0(i64 8, ptr %10) #9
  %32 = load ptr, ptr %5, align 8
  ret ptr %32
}

; Function Attrs: inlinehint mustprogress uwtable
define linkonce_odr noundef i32 @_ZNK6icu_7713UnicodeString6lengthEv(ptr noundef nonnull align 8 dereferenceable(64) %0) #4 comdat align 2 {
  %2 = alloca ptr, align 8
  store ptr %0, ptr %2, align 8, !tbaa !35
  %3 = load ptr, ptr %2, align 8
  %4 = call noundef signext i8 @_ZNK6icu_7713UnicodeString14hasShortLengthEv(ptr noundef nonnull align 8 dereferenceable(64) %3)
  %5 = icmp ne i8 %4, 0
  br i1 %5, label %6, label %8

6:                                                ; preds = %1
  %7 = call noundef i32 @_ZNK6icu_7713UnicodeString14getShortLengthEv(ptr noundef nonnull align 8 dereferenceable(64) %3)
  br label %12

8:                                                ; preds = %1
  %9 = getelementptr inbounds nuw %"class.icu_77::UnicodeString", ptr %3, i32 0, i32 1
  %10 = getelementptr inbounds nuw %struct.anon.0, ptr %9, i32 0, i32 1
  %11 = load i32, ptr %10, align 4, !tbaa !10
  br label %12

12:                                               ; preds = %8, %6
  %13 = phi i32 [ %7, %6 ], [ %11, %8 ]
  ret i32 %13
}

; Function Attrs: inlinehint mustprogress nounwind uwtable
define linkonce_odr void @_ZN6icu_7714ConstChar16PtrD2Ev(ptr noundef nonnull align 8 dereferenceable(8) %0) unnamed_addr #3 comdat align 2 {
  %2 = alloca ptr, align 8
  store ptr %0, ptr %2, align 8, !tbaa !30
  %3 = load ptr, ptr %2, align 8
  %4 = getelementptr inbounds nuw %"class.icu_77::ConstChar16Ptr", ptr %3, i32 0, i32 0
  %5 = load ptr, ptr %4, align 8, !tbaa !32
  call void asm sideeffect "", "rm,~{memory},~{dirflag},~{fpsr},~{flags}"(ptr %5) #9, !srcloc !34
  ret void
}

; Function Attrs: inlinehint mustprogress nounwind uwtable
define linkonce_odr void @_ZN6icu_7714ConstChar16PtrC2EPKDs(ptr noundef nonnull align 8 dereferenceable(8) %0, ptr noundef %1) unnamed_addr #3 comdat align 2 {
  %3 = alloca ptr, align 8
  %4 = alloca ptr, align 8
  store ptr %0, ptr %3, align 8, !tbaa !30
  store ptr %1, ptr %4, align 8, !tbaa !28
  %5 = load ptr, ptr %3, align 8
  %6 = getelementptr inbounds nuw %"class.icu_77::ConstChar16Ptr", ptr %5, i32 0, i32 0
  %7 = load ptr, ptr %4, align 8, !tbaa !28
  store ptr %7, ptr %6, align 8, !tbaa !32
  ret void
}

; Function Attrs: mustprogress uwtable
define ptr @u_fopen_u_77(ptr noundef %0, ptr noundef %1, ptr noundef %2, ptr noundef %3) #0 personality ptr @__gxx_personality_v0 {
  %5 = alloca ptr, align 8
  %6 = alloca ptr, align 8
  %7 = alloca ptr, align 8
  %8 = alloca ptr, align 8
  %9 = alloca ptr, align 8
  %10 = alloca ptr, align 8
  %11 = alloca [296 x i8], align 16
  %12 = alloca ptr, align 8
  %13 = alloca %"class.icu_77::UnicodeString", align 8
  %14 = alloca %"class.icu_77::ConstChar16Ptr", align 8
  %15 = alloca ptr, align 8
  %16 = alloca i32, align 4
  %17 = alloca i32, align 4
  %18 = alloca i32, align 4
  store ptr %0, ptr %6, align 8, !tbaa !28
  store ptr %1, ptr %7, align 8, !tbaa !8
  store ptr %2, ptr %8, align 8, !tbaa !8
  store ptr %3, ptr %9, align 8, !tbaa !8
  call void @llvm.lifetime.start.p0(i64 8, ptr %10) #9
  call void @llvm.lifetime.start.p0(i64 296, ptr %11) #9
  call void @llvm.lifetime.start.p0(i64 8, ptr %12) #9
  %19 = getelementptr inbounds [296 x i8], ptr %11, i64 0, i64 0
  store ptr %19, ptr %12, align 8, !tbaa !8
  call void @llvm.lifetime.start.p0(i64 64, ptr %13) #9
  %20 = load ptr, ptr %6, align 8, !tbaa !28
  call void @_ZN6icu_7714ConstChar16PtrC2EPKDs(ptr noundef nonnull align 8 dereferenceable(8) %14, ptr noundef %20)
  invoke void @_ZN6icu_7713UnicodeStringC1EaNS_14ConstChar16PtrEi(ptr noundef nonnull align 8 dereferenceable(64) %13, i8 noundef signext 1, ptr noundef %14, i32 noundef -1)
          to label %21 unwind label %38

21:                                               ; preds = %4
  call void @_ZN6icu_7714ConstChar16PtrD2Ev(ptr noundef nonnull align 8 dereferenceable(8) %14) #9
  call void @llvm.lifetime.start.p0(i64 4, ptr %17) #9
  %22 = invoke noundef i32 @_ZNK6icu_7713UnicodeString6lengthEv(ptr noundef nonnull align 8 dereferenceable(64) %13)
          to label %23 unwind label %42

23:                                               ; preds = %21
  %24 = load ptr, ptr %12, align 8, !tbaa !8
  %25 = invoke noundef i32 @_ZNK6icu_7713UnicodeString7extractEiiPcj(ptr noundef nonnull align 8 dereferenceable(64) %13, i32 noundef 0, i32 noundef %22, ptr noundef %24, i32 noundef 296)
          to label %26 unwind label %42

26:                                               ; preds = %23
  store i32 %25, ptr %17, align 4, !tbaa !29
  %27 = load i32, ptr %17, align 4, !tbaa !29
  %28 = icmp sge i32 %27, 296
  br i1 %28, label %29, label %53

29:                                               ; preds = %26
  %30 = load i32, ptr %17, align 4, !tbaa !29
  %31 = add nsw i32 %30, 1
  store i32 %31, ptr %17, align 4, !tbaa !29
  %32 = sext i32 %31 to i64
  %33 = invoke noalias ptr @uprv_malloc_77(i64 noundef %32) #10
          to label %34 unwind label %42

34:                                               ; preds = %29
  store ptr %33, ptr %12, align 8, !tbaa !8
  %35 = load ptr, ptr %12, align 8, !tbaa !8
  %36 = icmp ne ptr %35, null
  br i1 %36, label %46, label %37

37:                                               ; preds = %34
  store ptr null, ptr %5, align 8
  store i32 1, ptr %18, align 4
  br label %68

38:                                               ; preds = %4
  %39 = landingpad { ptr, i32 }
          cleanup
  %40 = extractvalue { ptr, i32 } %39, 0
  store ptr %40, ptr %15, align 8
  %41 = extractvalue { ptr, i32 } %39, 1
  store i32 %41, ptr %16, align 4
  call void @_ZN6icu_7714ConstChar16PtrD2Ev(ptr noundef nonnull align 8 dereferenceable(8) %14) #9
  br label %70

42:                                               ; preds = %63, %53, %48, %46, %29, %23, %21
  %43 = landingpad { ptr, i32 }
          cleanup
  %44 = extractvalue { ptr, i32 } %43, 0
  store ptr %44, ptr %15, align 8
  %45 = extractvalue { ptr, i32 } %43, 1
  store i32 %45, ptr %16, align 4
  call void @llvm.lifetime.end.p0(i64 4, ptr %17) #9
  call void @_ZN6icu_7713UnicodeStringD1Ev(ptr noundef nonnull align 8 dereferenceable(64) %13) #9
  br label %70

46:                                               ; preds = %34
  %47 = invoke noundef i32 @_ZNK6icu_7713UnicodeString6lengthEv(ptr noundef nonnull align 8 dereferenceable(64) %13)
          to label %48 unwind label %42

48:                                               ; preds = %46
  %49 = load ptr, ptr %12, align 8, !tbaa !8
  %50 = load i32, ptr %17, align 4, !tbaa !29
  %51 = invoke noundef i32 @_ZNK6icu_7713UnicodeString7extractEiiPcj(ptr noundef nonnull align 8 dereferenceable(64) %13, i32 noundef 0, i32 noundef %47, ptr noundef %49, i32 noundef %50)
          to label %52 unwind label %42

52:                                               ; preds = %48
  br label %53

53:                                               ; preds = %52, %26
  %54 = load ptr, ptr %12, align 8, !tbaa !8
  %55 = load ptr, ptr %7, align 8, !tbaa !8
  %56 = load ptr, ptr %8, align 8, !tbaa !8
  %57 = load ptr, ptr %9, align 8, !tbaa !8
  %58 = invoke ptr @u_fopen_77(ptr noundef %54, ptr noundef %55, ptr noundef %56, ptr noundef %57)
          to label %59 unwind label %42

59:                                               ; preds = %53
  store ptr %58, ptr %10, align 8, !tbaa !13
  %60 = load ptr, ptr %12, align 8, !tbaa !8
  %61 = getelementptr inbounds [296 x i8], ptr %11, i64 0, i64 0
  %62 = icmp ne ptr %60, %61
  br i1 %62, label %63, label %66

63:                                               ; preds = %59
  %64 = load ptr, ptr %12, align 8, !tbaa !8
  invoke void @uprv_free_77(ptr noundef %64)
          to label %65 unwind label %42

65:                                               ; preds = %63
  br label %66

66:                                               ; preds = %65, %59
  %67 = load ptr, ptr %10, align 8, !tbaa !13
  store ptr %67, ptr %5, align 8
  store i32 1, ptr %18, align 4
  br label %68

68:                                               ; preds = %66, %37
  call void @llvm.lifetime.end.p0(i64 4, ptr %17) #9
  call void @_ZN6icu_7713UnicodeStringD1Ev(ptr noundef nonnull align 8 dereferenceable(64) %13) #9
  call void @llvm.lifetime.end.p0(i64 64, ptr %13) #9
  call void @llvm.lifetime.end.p0(i64 8, ptr %12) #9
  call void @llvm.lifetime.end.p0(i64 296, ptr %11) #9
  call void @llvm.lifetime.end.p0(i64 8, ptr %10) #9
  %69 = load ptr, ptr %5, align 8
  ret ptr %69

70:                                               ; preds = %42, %38
  call void @llvm.lifetime.end.p0(i64 64, ptr %13) #9
  call void @llvm.lifetime.end.p0(i64 8, ptr %12) #9
  call void @llvm.lifetime.end.p0(i64 296, ptr %11) #9
  call void @llvm.lifetime.end.p0(i64 8, ptr %10) #9
  br label %71

71:                                               ; preds = %70
  %72 = load ptr, ptr %15, align 8
  %73 = load i32, ptr %16, align 4
  %74 = insertvalue { ptr, i32 } poison, ptr %72, 0
  %75 = insertvalue { ptr, i32 } %74, i32 %73, 1
  resume { ptr, i32 } %75
}