; Function Attrs: mustprogress uwtable
define noundef ptr @u_fopen_u_77(ptr noundef %0, ptr noundef readonly captures(none) %1, ptr noundef %2, ptr noundef %3) local_unnamed_addr #0 personality ptr @__gxx_personality_v0 {
  %5 = alloca [296 x i8], align 16
  %6 = alloca %"class.icu_77::UnicodeString", align 8
  %7 = alloca %"class.icu_77::ConstChar16Ptr", align 8
  call void @llvm.lifetime.start.p0(i64 296, ptr nonnull %5) #9
  call void @llvm.lifetime.start.p0(i64 64, ptr nonnull %6) #9
  store ptr %0, ptr %7, align 8, !tbaa !24
  invoke void @_ZN6icu_7713UnicodeStringC1EaNS_14ConstChar16PtrEi(ptr noundef nonnull align 8 dereferenceable(64) %6, i8 noundef signext 1, ptr noundef nonnull %7, i32 noundef -1)
          to label %8 unwind label %26

8:                                                ; preds = %4
  %9 = load ptr, ptr %7, align 8, !tbaa !24
  call void asm sideeffect "", "rm,~{memory},~{dirflag},~{fpsr},~{flags}"(ptr %9) #9, !srcloc !26
  %10 = getelementptr inbounds nuw i8, ptr %6, i64 8
  %11 = load i16, ptr %10, align 8, !tbaa !21
  %12 = icmp slt i16 %11, 0
  %13 = ashr i16 %11, 5
  %14 = sext i16 %13 to i32
  %15 = getelementptr inbounds nuw i8, ptr %6, i64 12
  %16 = load i32, ptr %15, align 4
  %17 = select i1 %12, i32 %16, i32 %14
  %18 = invoke noundef i32 @_ZNK6icu_7713UnicodeString7extractEiiPcj(ptr noundef nonnull align 8 dereferenceable(64) %6, i32 noundef 0, i32 noundef %17, ptr noundef nonnull %5, i32 noundef 296)
          to label %19 unwind label %29

19:                                               ; preds = %8
  %20 = icmp sgt i32 %18, 295
  br i1 %20, label %21, label %39

21:                                               ; preds = %19
  %22 = add nuw nsw i32 %18, 1
  %23 = zext nneg i32 %22 to i64
  %24 = invoke noalias ptr @uprv_malloc_77(i64 noundef %23) #10
          to label %25 unwind label %29

25:                                               ; preds = %21
  %.not = icmp eq ptr %24, null
  br i1 %.not, label %47, label %31

26:                                               ; preds = %4
  %27 = landingpad { ptr, i32 }
          cleanup
  %28 = load ptr, ptr %7, align 8, !tbaa !24
  call void asm sideeffect "", "rm,~{memory},~{dirflag},~{fpsr},~{flags}"(ptr %28) #9, !srcloc !26
  br label %48

29:                                               ; preds = %42, %46, %31, %21, %8
  %30 = landingpad { ptr, i32 }
          cleanup
  call void @_ZN6icu_7713UnicodeStringD1Ev(ptr noundef nonnull align 8 dereferenceable(64) %6) #9
  br label %48

31:                                               ; preds = %25
  %32 = load i16, ptr %10, align 8, !tbaa !21
  %33 = icmp slt i16 %32, 0
  %34 = ashr i16 %32, 5
  %35 = sext i16 %34 to i32
  %36 = load i32, ptr %15, align 4
  %37 = select i1 %33, i32 %36, i32 %35
  %38 = invoke noundef i32 @_ZNK6icu_7713UnicodeString7extractEiiPcj(ptr noundef nonnull align 8 dereferenceable(64) %6, i32 noundef 0, i32 noundef %37, ptr noundef nonnull %24, i32 noundef %22)
          to label %39 unwind label %29

39:                                               ; preds = %31, %19
  %.017 = phi ptr [ %24, %31 ], [ %5, %19 ]
  %40 = call noalias ptr @fopen(ptr noundef nonnull readonly %.017, ptr noundef readonly %1)
  %41 = icmp eq ptr %40, null
  br i1 %41, label %u_fopen_77.exit, label %42

42:                                               ; preds = %39
  %43 = invoke fastcc noundef ptr @_ZL11finit_ownerP8_IO_FILEPKcS2_a(ptr noundef nonnull %40, ptr noundef %2, ptr noundef %3, i8 noundef signext 1)
          to label %.noexc unwind label %29

.noexc:                                           ; preds = %42
  %.not.i = icmp eq ptr %43, null
  br i1 %.not.i, label %44, label %u_fopen_77.exit

44:                                               ; preds = %.noexc
  %45 = call i32 @fclose(ptr noundef nonnull %40)
  br label %u_fopen_77.exit

u_fopen_77.exit:                                  ; preds = %44, %.noexc, %39
  %.0.i = phi ptr [ null, %39 ], [ null, %44 ], [ %43, %.noexc ]
  %.not21 = icmp eq ptr %.017, %5
  br i1 %.not21, label %47, label %46

46:                                               ; preds = %u_fopen_77.exit
  invoke void @uprv_free_77(ptr noundef nonnull %.017)
          to label %47 unwind label %29

47:                                               ; preds = %u_fopen_77.exit, %46, %25
  %.018 = phi ptr [ null, %25 ], [ %.0.i, %46 ], [ %.0.i, %u_fopen_77.exit ]
  call void @_ZN6icu_7713UnicodeStringD1Ev(ptr noundef nonnull align 8 dereferenceable(64) %6) #9
  call void @llvm.lifetime.end.p0(i64 64, ptr nonnull %6) #9
  call void @llvm.lifetime.end.p0(i64 296, ptr nonnull %5) #9
  ret ptr %.018

48:                                               ; preds = %29, %26
  %.pn = phi { ptr, i32 } [ %30, %29 ], [ %27, %26 ]
  call void @llvm.lifetime.end.p0(i64 64, ptr nonnull %6) #9
  call void @llvm.lifetime.end.p0(i64 296, ptr nonnull %5) #9
  resume { ptr, i32 } %.pn
}